
LED Toggle.elf:     file format elf32-avr

Sections:
Idx Name          Size      VMA       LMA       File off  Algn
  0 .text         000002d4  00000000  00000000  00000054  2**1
                  CONTENTS, ALLOC, LOAD, READONLY, CODE
  1 .data         00000000  00802000  00802000  00000328  2**0
                  CONTENTS, ALLOC, LOAD, DATA
  2 .comment      00000030  00000000  00000000  00000328  2**0
                  CONTENTS, READONLY
  3 .note.gnu.avr.deviceinfo 00000044  00000000  00000000  00000358  2**2
                  CONTENTS, READONLY
  4 .debug_aranges 00000038  00000000  00000000  0000039c  2**0
                  CONTENTS, READONLY, DEBUGGING
  5 .debug_info   000038e4  00000000  00000000  000003d4  2**0
                  CONTENTS, READONLY, DEBUGGING
  6 .debug_abbrev 00003224  00000000  00000000  00003cb8  2**0
                  CONTENTS, READONLY, DEBUGGING
  7 .debug_line   00000979  00000000  00000000  00006edc  2**0
                  CONTENTS, READONLY, DEBUGGING
  8 .debug_frame  0000009c  00000000  00000000  00007858  2**2
                  CONTENTS, READONLY, DEBUGGING
  9 .debug_str    0002ca46  00000000  00000000  000078f4  2**0
                  CONTENTS, READONLY, DEBUGGING
 10 .debug_loc    000000ff  00000000  00000000  0003433a  2**0
                  CONTENTS, READONLY, DEBUGGING
 11 .debug_ranges 00000028  00000000  00000000  00034439  2**0
                  CONTENTS, READONLY, DEBUGGING
 12 .debug_macro  000002b6  00000000  00000000  00034461  2**0
                  CONTENTS, READONLY, DEBUGGING

Disassembly of section .text:

00000000 <__vectors>:
   0:	fd c0       	rjmp	.+506    	; 0x1fc <__ctors_end>
   2:	00 00       	nop
   4:	05 c1       	rjmp	.+522    	; 0x210 <__bad_interrupt>
   6:	00 00       	nop
   8:	03 c1       	rjmp	.+518    	; 0x210 <__bad_interrupt>
   a:	00 00       	nop
   c:	01 c1       	rjmp	.+514    	; 0x210 <__bad_interrupt>
   e:	00 00       	nop
  10:	ff c0       	rjmp	.+510    	; 0x210 <__bad_interrupt>
  12:	00 00       	nop
  14:	fd c0       	rjmp	.+506    	; 0x210 <__bad_interrupt>
  16:	00 00       	nop
  18:	fb c0       	rjmp	.+502    	; 0x210 <__bad_interrupt>
  1a:	00 00       	nop
  1c:	f9 c0       	rjmp	.+498    	; 0x210 <__bad_interrupt>
  1e:	00 00       	nop
  20:	f7 c0       	rjmp	.+494    	; 0x210 <__bad_interrupt>
  22:	00 00       	nop
  24:	f5 c0       	rjmp	.+490    	; 0x210 <__bad_interrupt>
  26:	00 00       	nop
  28:	f3 c0       	rjmp	.+486    	; 0x210 <__bad_interrupt>
  2a:	00 00       	nop
  2c:	f1 c0       	rjmp	.+482    	; 0x210 <__bad_interrupt>
  2e:	00 00       	nop
  30:	ef c0       	rjmp	.+478    	; 0x210 <__bad_interrupt>
  32:	00 00       	nop
  34:	ed c0       	rjmp	.+474    	; 0x210 <__bad_interrupt>
  36:	00 00       	nop
  38:	eb c0       	rjmp	.+470    	; 0x210 <__bad_interrupt>
  3a:	00 00       	nop
  3c:	e9 c0       	rjmp	.+466    	; 0x210 <__bad_interrupt>
  3e:	00 00       	nop
  40:	e7 c0       	rjmp	.+462    	; 0x210 <__bad_interrupt>
  42:	00 00       	nop
  44:	e5 c0       	rjmp	.+458    	; 0x210 <__bad_interrupt>
  46:	00 00       	nop
  48:	e3 c0       	rjmp	.+454    	; 0x210 <__bad_interrupt>
  4a:	00 00       	nop
  4c:	e1 c0       	rjmp	.+450    	; 0x210 <__bad_interrupt>
  4e:	00 00       	nop
  50:	df c0       	rjmp	.+446    	; 0x210 <__bad_interrupt>
  52:	00 00       	nop
  54:	dd c0       	rjmp	.+442    	; 0x210 <__bad_interrupt>
  56:	00 00       	nop
  58:	db c0       	rjmp	.+438    	; 0x210 <__bad_interrupt>
  5a:	00 00       	nop
  5c:	d9 c0       	rjmp	.+434    	; 0x210 <__bad_interrupt>
  5e:	00 00       	nop
  60:	d7 c0       	rjmp	.+430    	; 0x210 <__bad_interrupt>
  62:	00 00       	nop
  64:	d5 c0       	rjmp	.+426    	; 0x210 <__bad_interrupt>
  66:	00 00       	nop
  68:	d3 c0       	rjmp	.+422    	; 0x210 <__bad_interrupt>
  6a:	00 00       	nop
  6c:	d1 c0       	rjmp	.+418    	; 0x210 <__bad_interrupt>
  6e:	00 00       	nop
  70:	cf c0       	rjmp	.+414    	; 0x210 <__bad_interrupt>
  72:	00 00       	nop
  74:	cd c0       	rjmp	.+410    	; 0x210 <__bad_interrupt>
  76:	00 00       	nop
  78:	cb c0       	rjmp	.+406    	; 0x210 <__bad_interrupt>
  7a:	00 00       	nop
  7c:	c9 c0       	rjmp	.+402    	; 0x210 <__bad_interrupt>
  7e:	00 00       	nop
  80:	c7 c0       	rjmp	.+398    	; 0x210 <__bad_interrupt>
  82:	00 00       	nop
  84:	c5 c0       	rjmp	.+394    	; 0x210 <__bad_interrupt>
  86:	00 00       	nop
  88:	c3 c0       	rjmp	.+390    	; 0x210 <__bad_interrupt>
  8a:	00 00       	nop
  8c:	c1 c0       	rjmp	.+386    	; 0x210 <__bad_interrupt>
  8e:	00 00       	nop
  90:	bf c0       	rjmp	.+382    	; 0x210 <__bad_interrupt>
  92:	00 00       	nop
  94:	bd c0       	rjmp	.+378    	; 0x210 <__bad_interrupt>
  96:	00 00       	nop
  98:	bb c0       	rjmp	.+374    	; 0x210 <__bad_interrupt>
  9a:	00 00       	nop
  9c:	b9 c0       	rjmp	.+370    	; 0x210 <__bad_interrupt>
  9e:	00 00       	nop
  a0:	b7 c0       	rjmp	.+366    	; 0x210 <__bad_interrupt>
  a2:	00 00       	nop
  a4:	b5 c0       	rjmp	.+362    	; 0x210 <__bad_interrupt>
  a6:	00 00       	nop
  a8:	b3 c0       	rjmp	.+358    	; 0x210 <__bad_interrupt>
  aa:	00 00       	nop
  ac:	b1 c0       	rjmp	.+354    	; 0x210 <__bad_interrupt>
  ae:	00 00       	nop
  b0:	af c0       	rjmp	.+350    	; 0x210 <__bad_interrupt>
  b2:	00 00       	nop
  b4:	ad c0       	rjmp	.+346    	; 0x210 <__bad_interrupt>
  b6:	00 00       	nop
  b8:	ab c0       	rjmp	.+342    	; 0x210 <__bad_interrupt>
  ba:	00 00       	nop
  bc:	a9 c0       	rjmp	.+338    	; 0x210 <__bad_interrupt>
  be:	00 00       	nop
  c0:	a7 c0       	rjmp	.+334    	; 0x210 <__bad_interrupt>
  c2:	00 00       	nop
  c4:	a5 c0       	rjmp	.+330    	; 0x210 <__bad_interrupt>
  c6:	00 00       	nop
  c8:	a3 c0       	rjmp	.+326    	; 0x210 <__bad_interrupt>
  ca:	00 00       	nop
  cc:	a1 c0       	rjmp	.+322    	; 0x210 <__bad_interrupt>
  ce:	00 00       	nop
  d0:	9f c0       	rjmp	.+318    	; 0x210 <__bad_interrupt>
  d2:	00 00       	nop
  d4:	9d c0       	rjmp	.+314    	; 0x210 <__bad_interrupt>
  d6:	00 00       	nop
  d8:	9b c0       	rjmp	.+310    	; 0x210 <__bad_interrupt>
  da:	00 00       	nop
  dc:	99 c0       	rjmp	.+306    	; 0x210 <__bad_interrupt>
  de:	00 00       	nop
  e0:	97 c0       	rjmp	.+302    	; 0x210 <__bad_interrupt>
  e2:	00 00       	nop
  e4:	95 c0       	rjmp	.+298    	; 0x210 <__bad_interrupt>
  e6:	00 00       	nop
  e8:	93 c0       	rjmp	.+294    	; 0x210 <__bad_interrupt>
  ea:	00 00       	nop
  ec:	91 c0       	rjmp	.+290    	; 0x210 <__bad_interrupt>
  ee:	00 00       	nop
  f0:	8f c0       	rjmp	.+286    	; 0x210 <__bad_interrupt>
  f2:	00 00       	nop
  f4:	8d c0       	rjmp	.+282    	; 0x210 <__bad_interrupt>
  f6:	00 00       	nop
  f8:	8b c0       	rjmp	.+278    	; 0x210 <__bad_interrupt>
  fa:	00 00       	nop
  fc:	89 c0       	rjmp	.+274    	; 0x210 <__bad_interrupt>
  fe:	00 00       	nop
 100:	87 c0       	rjmp	.+270    	; 0x210 <__bad_interrupt>
 102:	00 00       	nop
 104:	85 c0       	rjmp	.+266    	; 0x210 <__bad_interrupt>
 106:	00 00       	nop
 108:	83 c0       	rjmp	.+262    	; 0x210 <__bad_interrupt>
 10a:	00 00       	nop
 10c:	81 c0       	rjmp	.+258    	; 0x210 <__bad_interrupt>
 10e:	00 00       	nop
 110:	7f c0       	rjmp	.+254    	; 0x210 <__bad_interrupt>
 112:	00 00       	nop
 114:	7d c0       	rjmp	.+250    	; 0x210 <__bad_interrupt>
 116:	00 00       	nop
 118:	7b c0       	rjmp	.+246    	; 0x210 <__bad_interrupt>
 11a:	00 00       	nop
 11c:	79 c0       	rjmp	.+242    	; 0x210 <__bad_interrupt>
 11e:	00 00       	nop
 120:	77 c0       	rjmp	.+238    	; 0x210 <__bad_interrupt>
 122:	00 00       	nop
 124:	75 c0       	rjmp	.+234    	; 0x210 <__bad_interrupt>
 126:	00 00       	nop
 128:	73 c0       	rjmp	.+230    	; 0x210 <__bad_interrupt>
 12a:	00 00       	nop
 12c:	71 c0       	rjmp	.+226    	; 0x210 <__bad_interrupt>
 12e:	00 00       	nop
 130:	6f c0       	rjmp	.+222    	; 0x210 <__bad_interrupt>
 132:	00 00       	nop
 134:	6d c0       	rjmp	.+218    	; 0x210 <__bad_interrupt>
 136:	00 00       	nop
 138:	6b c0       	rjmp	.+214    	; 0x210 <__bad_interrupt>
 13a:	00 00       	nop
 13c:	69 c0       	rjmp	.+210    	; 0x210 <__bad_interrupt>
 13e:	00 00       	nop
 140:	67 c0       	rjmp	.+206    	; 0x210 <__bad_interrupt>
 142:	00 00       	nop
 144:	65 c0       	rjmp	.+202    	; 0x210 <__bad_interrupt>
 146:	00 00       	nop
 148:	63 c0       	rjmp	.+198    	; 0x210 <__bad_interrupt>
 14a:	00 00       	nop
 14c:	61 c0       	rjmp	.+194    	; 0x210 <__bad_interrupt>
 14e:	00 00       	nop
 150:	5f c0       	rjmp	.+190    	; 0x210 <__bad_interrupt>
 152:	00 00       	nop
 154:	5d c0       	rjmp	.+186    	; 0x210 <__bad_interrupt>
 156:	00 00       	nop
 158:	5b c0       	rjmp	.+182    	; 0x210 <__bad_interrupt>
 15a:	00 00       	nop
 15c:	59 c0       	rjmp	.+178    	; 0x210 <__bad_interrupt>
 15e:	00 00       	nop
 160:	57 c0       	rjmp	.+174    	; 0x210 <__bad_interrupt>
 162:	00 00       	nop
 164:	55 c0       	rjmp	.+170    	; 0x210 <__bad_interrupt>
 166:	00 00       	nop
 168:	53 c0       	rjmp	.+166    	; 0x210 <__bad_interrupt>
 16a:	00 00       	nop
 16c:	51 c0       	rjmp	.+162    	; 0x210 <__bad_interrupt>
 16e:	00 00       	nop
 170:	4f c0       	rjmp	.+158    	; 0x210 <__bad_interrupt>
 172:	00 00       	nop
 174:	4d c0       	rjmp	.+154    	; 0x210 <__bad_interrupt>
 176:	00 00       	nop
 178:	4b c0       	rjmp	.+150    	; 0x210 <__bad_interrupt>
 17a:	00 00       	nop
 17c:	49 c0       	rjmp	.+146    	; 0x210 <__bad_interrupt>
 17e:	00 00       	nop
 180:	47 c0       	rjmp	.+142    	; 0x210 <__bad_interrupt>
 182:	00 00       	nop
 184:	45 c0       	rjmp	.+138    	; 0x210 <__bad_interrupt>
 186:	00 00       	nop
 188:	43 c0       	rjmp	.+134    	; 0x210 <__bad_interrupt>
 18a:	00 00       	nop
 18c:	41 c0       	rjmp	.+130    	; 0x210 <__bad_interrupt>
 18e:	00 00       	nop
 190:	3f c0       	rjmp	.+126    	; 0x210 <__bad_interrupt>
 192:	00 00       	nop
 194:	3d c0       	rjmp	.+122    	; 0x210 <__bad_interrupt>
 196:	00 00       	nop
 198:	3b c0       	rjmp	.+118    	; 0x210 <__bad_interrupt>
 19a:	00 00       	nop
 19c:	39 c0       	rjmp	.+114    	; 0x210 <__bad_interrupt>
 19e:	00 00       	nop
 1a0:	5a c0       	rjmp	.+180    	; 0x256 <__vector_104>
 1a2:	00 00       	nop
 1a4:	35 c0       	rjmp	.+106    	; 0x210 <__bad_interrupt>
 1a6:	00 00       	nop
 1a8:	33 c0       	rjmp	.+102    	; 0x210 <__bad_interrupt>
 1aa:	00 00       	nop
 1ac:	31 c0       	rjmp	.+98     	; 0x210 <__bad_interrupt>
 1ae:	00 00       	nop
 1b0:	2f c0       	rjmp	.+94     	; 0x210 <__bad_interrupt>
 1b2:	00 00       	nop
 1b4:	2d c0       	rjmp	.+90     	; 0x210 <__bad_interrupt>
 1b6:	00 00       	nop
 1b8:	2b c0       	rjmp	.+86     	; 0x210 <__bad_interrupt>
 1ba:	00 00       	nop
 1bc:	29 c0       	rjmp	.+82     	; 0x210 <__bad_interrupt>
 1be:	00 00       	nop
 1c0:	27 c0       	rjmp	.+78     	; 0x210 <__bad_interrupt>
 1c2:	00 00       	nop
 1c4:	25 c0       	rjmp	.+74     	; 0x210 <__bad_interrupt>
 1c6:	00 00       	nop
 1c8:	23 c0       	rjmp	.+70     	; 0x210 <__bad_interrupt>
 1ca:	00 00       	nop
 1cc:	21 c0       	rjmp	.+66     	; 0x210 <__bad_interrupt>
 1ce:	00 00       	nop
 1d0:	1f c0       	rjmp	.+62     	; 0x210 <__bad_interrupt>
 1d2:	00 00       	nop
 1d4:	1d c0       	rjmp	.+58     	; 0x210 <__bad_interrupt>
 1d6:	00 00       	nop
 1d8:	1b c0       	rjmp	.+54     	; 0x210 <__bad_interrupt>
 1da:	00 00       	nop
 1dc:	19 c0       	rjmp	.+50     	; 0x210 <__bad_interrupt>
 1de:	00 00       	nop
 1e0:	17 c0       	rjmp	.+46     	; 0x210 <__bad_interrupt>
 1e2:	00 00       	nop
 1e4:	15 c0       	rjmp	.+42     	; 0x210 <__bad_interrupt>
 1e6:	00 00       	nop
 1e8:	13 c0       	rjmp	.+38     	; 0x210 <__bad_interrupt>
 1ea:	00 00       	nop
 1ec:	11 c0       	rjmp	.+34     	; 0x210 <__bad_interrupt>
 1ee:	00 00       	nop
 1f0:	0f c0       	rjmp	.+30     	; 0x210 <__bad_interrupt>
 1f2:	00 00       	nop
 1f4:	0d c0       	rjmp	.+26     	; 0x210 <__bad_interrupt>
 1f6:	00 00       	nop
 1f8:	0b c0       	rjmp	.+22     	; 0x210 <__bad_interrupt>
	...

000001fc <__ctors_end>:
 1fc:	11 24       	eor	r1, r1
 1fe:	1f be       	out	0x3f, r1	; 63
 200:	cf ef       	ldi	r28, 0xFF	; 255
 202:	cd bf       	out	0x3d, r28	; 61
 204:	df e5       	ldi	r29, 0x5F	; 95
 206:	de bf       	out	0x3e, r29	; 62
 208:	00 e0       	ldi	r16, 0x00	; 0
 20a:	0c bf       	out	0x3c, r16	; 60
 20c:	59 d0       	rcall	.+178    	; 0x2c0 <main>
 20e:	60 c0       	rjmp	.+192    	; 0x2d0 <_exit>

00000210 <__bad_interrupt>:
 210:	f7 ce       	rjmp	.-530    	; 0x0 <__vectors>

00000212 <__portable_avr_delay_cycles>:
 *
 * @{
 */
__always_optimize
static inline void __portable_avr_delay_cycles(unsigned long n)
{
 212:	04 c0       	rjmp	.+8      	; 0x21c <__portable_avr_delay_cycles+0xa>
	while (n) {
		barrier();
		n--;
 214:	61 50       	subi	r22, 0x01	; 1
 216:	71 09       	sbc	r23, r1
 218:	81 09       	sbc	r24, r1
 21a:	91 09       	sbc	r25, r1
 * @{
 */
__always_optimize
static inline void __portable_avr_delay_cycles(unsigned long n)
{
	while (n) {
 21c:	61 15       	cp	r22, r1
 21e:	71 05       	cpc	r23, r1
 220:	81 05       	cpc	r24, r1
 222:	91 05       	cpc	r25, r1
 224:	b9 f7       	brne	.-18     	; 0x214 <__portable_avr_delay_cycles+0x2>
 226:	08 95       	ret

00000228 <initialize>:
#define cbi(ADDRESS,BIT) ADDRESS &= ~(1<<BIT) // clear Bit
#define toggle(ADDRESS,BIT) ADDRESS ^= (1<<BIT) // change bit
void initialize(void)
{
	//Disable Interrupts Globally
	cli();
 228:	f8 94       	cli
	// set PORTF pin for input, connected to push button (see schematics)
	cbi(PORTF.DIR,1);
 22a:	e0 ea       	ldi	r30, 0xA0	; 160
 22c:	f6 e0       	ldi	r31, 0x06	; 6
 22e:	80 81       	ld	r24, Z
 230:	8d 7f       	andi	r24, 0xFD	; 253
 232:	80 83       	st	Z, r24
	// set PORTF input Pin for interrupting mode
	sbi(PORTF.INT0MASK,1);
 234:	82 85       	ldd	r24, Z+10	; 0x0a
 236:	82 60       	ori	r24, 0x02	; 2
 238:	82 87       	std	Z+10, r24	; 0x0a
	// pullup the PORTF input pin, sense for falling edge trigger
	PORTF.PIN1CTRL = PORT_OPC_WIREDANDPULL_gc | PORT_ISC_FALLING_gc;
 23a:	8a e3       	ldi	r24, 0x3A	; 58
 23c:	81 8b       	std	Z+17, r24	; 0x11
	// set PORTF and its INT0MASK for LO level priority
	PORTF.INTCTRL = PORT_INT0LVL_LO_gc;
 23e:	81 e0       	ldi	r24, 0x01	; 1
 240:	81 87       	std	Z+9, r24	; 0x09
	//set Interrupt Priority Level Configuration
	PMIC.CTRL|=PMIC_HILVLEN_bm|PMIC_MEDLVLEN_bm|PMIC_LOLVLEN_bm;
 242:	e0 ea       	ldi	r30, 0xA0	; 160
 244:	f0 e0       	ldi	r31, 0x00	; 0
 246:	82 81       	ldd	r24, Z+2	; 0x02
 248:	87 60       	ori	r24, 0x07	; 7
 24a:	82 83       	std	Z+2, r24	; 0x02
	//set data direction for PORT R to all outputs, one drives the LED
	PORTR.DIRSET = 0xFF;
 24c:	8f ef       	ldi	r24, 0xFF	; 255
 24e:	80 93 e1 07 	sts	0x07E1, r24	; 0x8007e1 <__TEXT_REGION_LENGTH__+0x7007e1>
	//Enable Interrupts Globally
	sei();
 252:	78 94       	sei
 254:	08 95       	ret

00000256 <__vector_104>:
}
ISR(PORTF_INT0_vect)
{
 256:	1f 92       	push	r1
 258:	0f 92       	push	r0
 25a:	0f b6       	in	r0, 0x3f	; 63
 25c:	0f 92       	push	r0
 25e:	11 24       	eor	r1, r1
 260:	0b b6       	in	r0, 0x3b	; 59
 262:	0f 92       	push	r0
 264:	2f 93       	push	r18
 266:	3f 93       	push	r19
 268:	4f 93       	push	r20
 26a:	5f 93       	push	r21
 26c:	6f 93       	push	r22
 26e:	7f 93       	push	r23
 270:	8f 93       	push	r24
 272:	9f 93       	push	r25
 274:	af 93       	push	r26
 276:	bf 93       	push	r27
 278:	ef 93       	push	r30
 27a:	ff 93       	push	r31
	delay_ms(100);
 27c:	66 e3       	ldi	r22, 0x36	; 54
 27e:	72 e8       	ldi	r23, 0x82	; 130
 280:	80 e0       	ldi	r24, 0x00	; 0
 282:	90 e0       	ldi	r25, 0x00	; 0
 284:	c6 df       	rcall	.-116    	; 0x212 <__portable_avr_delay_cycles>
	toggle(PORTR.OUT,0); // LED toggle
 286:	e0 ee       	ldi	r30, 0xE0	; 224
 288:	f7 e0       	ldi	r31, 0x07	; 7
 28a:	94 81       	ldd	r25, Z+4	; 0x04
 28c:	81 e0       	ldi	r24, 0x01	; 1
 28e:	89 27       	eor	r24, r25
 290:	84 83       	std	Z+4, r24	; 0x04
	toggle(PORTR.OUT, 1);
 292:	94 81       	ldd	r25, Z+4	; 0x04
 294:	82 e0       	ldi	r24, 0x02	; 2
 296:	89 27       	eor	r24, r25
 298:	84 83       	std	Z+4, r24	; 0x04
}
 29a:	ff 91       	pop	r31
 29c:	ef 91       	pop	r30
 29e:	bf 91       	pop	r27
 2a0:	af 91       	pop	r26
 2a2:	9f 91       	pop	r25
 2a4:	8f 91       	pop	r24
 2a6:	7f 91       	pop	r23
 2a8:	6f 91       	pop	r22
 2aa:	5f 91       	pop	r21
 2ac:	4f 91       	pop	r20
 2ae:	3f 91       	pop	r19
 2b0:	2f 91       	pop	r18
 2b2:	0f 90       	pop	r0
 2b4:	0b be       	out	0x3b, r0	; 59
 2b6:	0f 90       	pop	r0
 2b8:	0f be       	out	0x3f, r0	; 63
 2ba:	0f 90       	pop	r0
 2bc:	1f 90       	pop	r1
 2be:	18 95       	reti

000002c0 <main>:
int main (void)
{
 2c0:	b3 df       	rcall	.-154    	; 0x228 <initialize>
 2c2:	e0 ee       	ldi	r30, 0xE0	; 224
 2c4:	f7 e0       	ldi	r31, 0x07	; 7
 2c6:	94 81       	ldd	r25, Z+4	; 0x04
 2c8:	82 e0       	ldi	r24, 0x02	; 2
 2ca:	89 27       	eor	r24, r25
 2cc:	84 83       	std	Z+4, r24	; 0x04
 2ce:	ff cf       	rjmp	.-2      	; 0x2ce <main+0xe>

000002d0 <_exit>:
 2d0:	f8 94       	cli

000002d2 <__stop_program>:
 2d2:	ff cf       	rjmp	.-2      	; 0x2d2 <__stop_program>
